; Function Attrs: mustprogress uwtable
define void @_ZN9grpc_core30FileExternalAccountCredentials6CreateENS_26ExternalAccountCredentials7OptionsESt6vectorINSt7__cxx1112basic_stringIcSt11char_traitsIcESaIcEEESaIS9_EEPN4absl12lts_202308026StatusE(ptr noalias nocapture writeonly sret(%"class.grpc_core::RefCountedPtr") align 8 %agg.result, ptr noundef nonnull %options, ptr noundef nonnull %scopes, ptr noundef %error) local_unnamed_addr #3 align 2 personality ptr @__gxx_personality_v0 {
invoke.cont:
  %error.addr = alloca ptr, align 8
  %creds = alloca %"class.grpc_core::RefCountedPtr", align 8
  store ptr %error, ptr %error.addr, align 8
  call void @_ZN9grpc_core14MakeRefCountedINS_30FileExternalAccountCredentialsEJNS_26ExternalAccountCredentials7OptionsESt6vectorINSt7__cxx1112basic_stringIcSt11char_traitsIcESaIcEEESaISA_EERPN4absl12lts_202308026StatusEEEENS_13RefCountedPtrIT_EEDpOT0_(ptr nonnull sret(%"class.grpc_core::RefCountedPtr") align 8 %creds, ptr noundef nonnull align 8 dereferenceable(384) %options, ptr noundef nonnull align 8 dereferenceable(24) %scopes, ptr noundef nonnull align 8 dereferenceable(8) %error.addr)
  %0 = load ptr, ptr %error.addr, align 8
  %1 = load i64, ptr %0, align 8
  %cmp.i = icmp eq i64 %1, 0
  br i1 %cmp.i, label %cleanup.thread, label %cleanup

cleanup.thread:                                   ; preds = %invoke.cont
  %2 = load ptr, ptr %creds, align 8
  store ptr %2, ptr %agg.result, align 8
  br label %_ZN9grpc_core13RefCountedPtrINS_30FileExternalAccountCredentialsEED2Ev.exit8

cleanup:                                          ; preds = %invoke.cont
  store ptr null, ptr %agg.result, align 8
  %.pr = load ptr, ptr %creds, align 8
  %cmp.not.i1 = icmp eq ptr %.pr, null
  br i1 %cmp.not.i1, label %_ZN9grpc_core13RefCountedPtrINS_30FileExternalAccountCredentialsEED2Ev.exit8, label %if.then.i2

if.then.i2:                                       ; preds = %cleanup
  %refs_.i.i3 = getelementptr inbounds i8, ptr %.pr, i64 8
  %3 = atomicrmw sub ptr %refs_.i.i3, i64 1 acq_rel, align 8
  %cmp.i.i.i4 = icmp eq i64 %3, 1
  br i1 %cmp.i.i.i4, label %if.then.i.i5, label %_ZN9grpc_core13RefCountedPtrINS_30FileExternalAccountCredentialsEED2Ev.exit8

if.then.i.i5:                                     ; preds = %if.then.i2
  %vtable.i.i.i6 = load ptr, ptr %.pr, align 8
  %vfn.i.i.i7 = getelementptr inbounds i8, ptr %vtable.i.i.i6, i64 8
  %4 = load ptr, ptr %vfn.i.i.i7, align 8
  call void %4(ptr noundef nonnull align 8 dereferenceable(20) %.pr) #15
  br label %_ZN9grpc_core13RefCountedPtrINS_30FileExternalAccountCredentialsEED2Ev.exit8

_ZN9grpc_core13RefCountedPtrINS_30FileExternalAccountCredentialsEED2Ev.exit8: ; preds = %cleanup.thread, %cleanup, %if.then.i2, %if.then.i.i5
  ret void
}